; Function Attrs: inlinehint nofree norecurse nounwind memory(argmem: readwrite, inaccessiblemem: readwrite) uwtable
define internal fastcc void @ForceZero(ptr noundef %0, i32 noundef %1) unnamed_addr #8 {
  %3 = ptrtoint ptr %0 to i64
  %4 = trunc i64 %3 to i32
  %5 = sub i32 0, %4
  %6 = and i32 %5, 7
  %spec.select = tail call i32 @llvm.umin.i32(i32 %1, i32 %6)
  %7 = sub i32 %1, %spec.select
  %.not24 = icmp eq i32 %spec.select, 0
  br i1 %.not24, label %.preheader23, label %.lr.ph

.preheader23:                                     ; preds = %.lr.ph, %2
  %.016.lcssa = phi ptr [ %0, %2 ], [ %10, %.lr.ph ]
  %8 = icmp ugt i32 %7, 7
  br i1 %8, label %.lr.ph29, label %.preheader

.lr.ph:                                           ; preds = %2, %.lr.ph
  %.126 = phi i32 [ %9, %.lr.ph ], [ %spec.select, %2 ]
  %.01625 = phi ptr [ %10, %.lr.ph ], [ %0, %2 ]
  %9 = add nsw i32 %.126, -1
  %10 = getelementptr inbounds nuw i8, ptr %.01625, i64 1
  store volatile i8 0, ptr %.01625, align 1, !tbaa !20
  %.not = icmp eq i32 %9, 0
  br i1 %.not, label %.preheader23, label %.lr.ph, !llvm.loop !21

.preheader:                                       ; preds = %.lr.ph29, %.preheader23
  %.018.lcssa = phi i32 [ %7, %.preheader23 ], [ %12, %.lr.ph29 ]
  %.015.lcssa = phi ptr [ %.016.lcssa, %.preheader23 ], [ %11, %.lr.ph29 ]
  %.not2232 = icmp eq i32 %.018.lcssa, 0
  br i1 %.not2232, label %._crit_edge, label %.lr.ph35

.lr.ph29:                                         ; preds = %.preheader23, %.lr.ph29
  %.01528 = phi ptr [ %11, %.lr.ph29 ], [ %.016.lcssa, %.preheader23 ]
  %.01827 = phi i32 [ %12, %.lr.ph29 ], [ %7, %.preheader23 ]
  %11 = getelementptr inbounds nuw i8, ptr %.01528, i64 8
  store volatile i64 0, ptr %.01528, align 8, !tbaa !23
  %12 = add i32 %.01827, -8
  %13 = icmp ugt i32 %12, 7
  br i1 %13, label %.lr.ph29, label %.preheader, !llvm.loop !25

.lr.ph35:                                         ; preds = %.preheader, %.lr.ph35
  %.11734 = phi ptr [ %15, %.lr.ph35 ], [ %.015.lcssa, %.preheader ]
  %.11933 = phi i32 [ %14, %.lr.ph35 ], [ %.018.lcssa, %.preheader ]
  %14 = add i32 %.11933, -1
  %15 = getelementptr inbounds nuw i8, ptr %.11734, i64 1
  store volatile i8 0, ptr %.11734, align 1, !tbaa !20
  %.not22 = icmp eq i32 %14, 0
  br i1 %.not22, label %._crit_edge, label %.lr.ph35, !llvm.loop !26

._crit_edge:                                      ; preds = %.lr.ph35, %.preheader
  ret void
}